target datalayout = "e-m:e-p270:32:32-p271:32:32-p272:64:64-i64:64-i128:128-f80:128-n8:16:32:64-S128"
target triple = "x86_64-pc-linux-gnu"

%struct.prov_aes_ocb_ctx_st = type { %struct.prov_cipher_ctx_st, %union.anon.0, %union.anon.1, %struct.ocb128_context, i32, i8, i64, i64, i64, [16 x i8], [16 x i8], [16 x i8] }
%struct.prov_cipher_ctx_st = type { [16 x i8], [16 x i8], [16 x i8], ptr, %union.anon, i32, i64, i64, i64, i64, i32, i8, i32, ptr, i32, i64, i32, i64, i32, ptr, ptr, ptr }
%union.anon = type { ptr }
%union.anon.0 = type { double, [240 x i8] }
%union.anon.1 = type { double, [240 x i8] }
%struct.ocb128_context = type { ptr, ptr, ptr, ptr, ptr, i64, i64, %union.OCB_BLOCK, %union.OCB_BLOCK, ptr, %struct.anon }
%union.OCB_BLOCK = type { [2 x i64] }
%struct.anon = type { i64, i64, %union.OCB_BLOCK, %union.OCB_BLOCK, %union.OCB_BLOCK, %union.OCB_BLOCK }
%struct.ossl_param_st = type { ptr, i32, ptr, i64, i64 }

@.str = private unnamed_addr constant [62 x i8] c"../openssl/providers/implementations/ciphers/cipher_aes_ocb.c\00", align 1
@.str.1 = private unnamed_addr constant [6 x i8] c"ivlen\00", align 1
@.str.2 = private unnamed_addr constant [7 x i8] c"keylen\00", align 1
@.str.6 = private unnamed_addr constant [4 x i8] c"tag\00", align 1
@__func__.aes_ocb_set_ctx_params = private unnamed_addr constant [23 x i8] c"aes_ocb_set_ctx_params\00", align 1

; Function Attrs: inlinehint nounwind uwtable
define internal i32 @ossl_param_is_empty(ptr noundef %0) #3 {
  %2 = alloca ptr, align 8
  store ptr %0, ptr %2, align 8, !tbaa !11
  %3 = load ptr, ptr %2, align 8, !tbaa !11
  %4 = icmp eq ptr %3, null
  br i1 %4, label %10, label %5

5:                                                ; preds = %1
  %6 = load ptr, ptr %2, align 8, !tbaa !11
  %7 = getelementptr inbounds nuw %struct.ossl_param_st, ptr %6, i32 0, i32 0
  %8 = load ptr, ptr %7, align 8, !tbaa !44
  %9 = icmp eq ptr %8, null
  br label %10

10:                                               ; preds = %5, %1
  %11 = phi i1 [ true, %1 ], [ %9, %5 ]
  %12 = zext i1 %11 to i32
  ret i32 %12
}

; Function Attrs: nounwind uwtable
define internal i32 @aes_ocb_set_ctx_params(ptr noundef %0, ptr noundef %1) #0 {
  %3 = alloca i32, align 4
  %4 = alloca ptr, align 8
  %5 = alloca ptr, align 8
  %6 = alloca ptr, align 8
  %7 = alloca ptr, align 8
  %8 = alloca i64, align 8
  %9 = alloca i32, align 4
  %10 = alloca i64, align 8
  store ptr %0, ptr %4, align 8, !tbaa !3
  store ptr %1, ptr %5, align 8, !tbaa !11
  call void @llvm.lifetime.start.p0(i64 8, ptr %6) #5
  %11 = load ptr, ptr %4, align 8, !tbaa !3
  store ptr %11, ptr %6, align 8, !tbaa !15
  call void @llvm.lifetime.start.p0(i64 8, ptr %7) #5
  call void @llvm.lifetime.start.p0(i64 8, ptr %8) #5
  %12 = load ptr, ptr %5, align 8, !tbaa !11
  %13 = call i32 @ossl_param_is_empty(ptr noundef %12)
  %14 = icmp ne i32 %13, 0
  br i1 %14, label %15, label %16

15:                                               ; preds = %2
  store i32 1, ptr %3, align 4
  store i32 1, ptr %9, align 4
  br label %129

16:                                               ; preds = %2
  %17 = load ptr, ptr %5, align 8, !tbaa !11
  %18 = call ptr @OSSL_PARAM_locate_const(ptr noundef %17, ptr noundef @.str.6)
  store ptr %18, ptr %7, align 8, !tbaa !11
  %19 = load ptr, ptr %7, align 8, !tbaa !11
  %20 = icmp ne ptr %19, null
  br i1 %20, label %21, label %74

21:                                               ; preds = %16
  %22 = load ptr, ptr %7, align 8, !tbaa !11
  %23 = getelementptr inbounds nuw %struct.ossl_param_st, ptr %22, i32 0, i32 1
  %24 = load i32, ptr %23, align 8, !tbaa !39
  %25 = icmp ne i32 %24, 5
  br i1 %25, label %26, label %27

26:                                               ; preds = %21
  call void @ERR_new()
  call void @ERR_set_debug(ptr noundef @.str, i32 noundef 365, ptr noundef @__func__.aes_ocb_set_ctx_params)
  call void (i32, i32, ptr, ...) @ERR_set_error(i32 noundef 57, i32 noundef 103, ptr noundef null)
  store i32 0, ptr %3, align 4
  store i32 1, ptr %9, align 4
  br label %129

27:                                               ; preds = %21
  %28 = load ptr, ptr %7, align 8, !tbaa !11
  %29 = getelementptr inbounds nuw %struct.ossl_param_st, ptr %28, i32 0, i32 2
  %30 = load ptr, ptr %29, align 8, !tbaa !40
  %31 = icmp eq ptr %30, null
  br i1 %31, label %32, label %44

32:                                               ; preds = %27
  %33 = load ptr, ptr %7, align 8, !tbaa !11
  %34 = getelementptr inbounds nuw %struct.ossl_param_st, ptr %33, i32 0, i32 3
  %35 = load i64, ptr %34, align 8, !tbaa !37
  %36 = icmp ugt i64 %35, 16
  br i1 %36, label %37, label %38

37:                                               ; preds = %32
  call void @ERR_new()
  call void @ERR_set_debug(ptr noundef @.str, i32 noundef 371, ptr noundef @__func__.aes_ocb_set_ctx_params)
  call void (i32, i32, ptr, ...) @ERR_set_error(i32 noundef 57, i32 noundef 118, ptr noundef null)
  store i32 0, ptr %3, align 4
  store i32 1, ptr %9, align 4
  br label %129

38:                                               ; preds = %32
  %39 = load ptr, ptr %7, align 8, !tbaa !11
  %40 = getelementptr inbounds nuw %struct.ossl_param_st, ptr %39, i32 0, i32 3
  %41 = load i64, ptr %40, align 8, !tbaa !37
  %42 = load ptr, ptr %6, align 8, !tbaa !15
  %43 = getelementptr inbounds nuw %struct.prov_aes_ocb_ctx_st, ptr %42, i32 0, i32 6
  store i64 %41, ptr %43, align 8, !tbaa !27
  br label %73

44:                                               ; preds = %27
  %45 = load ptr, ptr %6, align 8, !tbaa !15
  %46 = getelementptr inbounds nuw %struct.prov_aes_ocb_ctx_st, ptr %45, i32 0, i32 0
  %47 = getelementptr inbounds nuw %struct.prov_cipher_ctx_st, ptr %46, i32 0, i32 11
  %48 = load i8, ptr %47, align 4
  %49 = lshr i8 %48, 1
  %50 = and i8 %49, 1
  %51 = zext i8 %50 to i32
  %52 = icmp ne i32 %51, 0
  br i1 %52, label %53, label %54

53:                                               ; preds = %44
  call void @ERR_new()
  call void @ERR_set_debug(ptr noundef @.str, i32 noundef 377, ptr noundef @__func__.aes_ocb_set_ctx_params)
  call void (i32, i32, ptr, ...) @ERR_set_error(i32 noundef 57, i32 noundef 524550, ptr noundef null)
  store i32 0, ptr %3, align 4
  store i32 1, ptr %9, align 4
  br label %129

54:                                               ; preds = %44
  %55 = load ptr, ptr %7, align 8, !tbaa !11
  %56 = getelementptr inbounds nuw %struct.ossl_param_st, ptr %55, i32 0, i32 3
  %57 = load i64, ptr %56, align 8, !tbaa !37
  %58 = load ptr, ptr %6, align 8, !tbaa !15
  %59 = getelementptr inbounds nuw %struct.prov_aes_ocb_ctx_st, ptr %58, i32 0, i32 6
  %60 = load i64, ptr %59, align 8, !tbaa !27
  %61 = icmp ne i64 %57, %60
  br i1 %61, label %62, label %63

62:                                               ; preds = %54
  call void @ERR_new()
  call void @ERR_set_debug(ptr noundef @.str, i32 noundef 381, ptr noundef @__func__.aes_ocb_set_ctx_params)
  call void (i32, i32, ptr, ...) @ERR_set_error(i32 noundef 57, i32 noundef 118, ptr noundef null)
  store i32 0, ptr %3, align 4
  store i32 1, ptr %9, align 4
  br label %129

63:                                               ; preds = %54
  %64 = load ptr, ptr %6, align 8, !tbaa !15
  %65 = getelementptr inbounds nuw %struct.prov_aes_ocb_ctx_st, ptr %64, i32 0, i32 9
  %66 = getelementptr inbounds [16 x i8], ptr %65, i64 0, i64 0
  %67 = load ptr, ptr %7, align 8, !tbaa !11
  %68 = getelementptr inbounds nuw %struct.ossl_param_st, ptr %67, i32 0, i32 2
  %69 = load ptr, ptr %68, align 8, !tbaa !40
  %70 = load ptr, ptr %7, align 8, !tbaa !11
  %71 = getelementptr inbounds nuw %struct.ossl_param_st, ptr %70, i32 0, i32 3
  %72 = load i64, ptr %71, align 8, !tbaa !37
  call void @llvm.memcpy.p0.p0.i64(ptr align 8 %66, ptr align 1 %69, i64 %72, i1 false)
  br label %73

73:                                               ; preds = %63, %38
  br label %74

74:                                               ; preds = %73, %16
  %75 = load ptr, ptr %5, align 8, !tbaa !11
  %76 = call ptr @OSSL_PARAM_locate_const(ptr noundef %75, ptr noundef @.str.1)
  store ptr %76, ptr %7, align 8, !tbaa !11
  %77 = load ptr, ptr %7, align 8, !tbaa !11
  %78 = icmp ne ptr %77, null
  br i1 %78, label %79, label %106

79:                                               ; preds = %74
  %80 = load ptr, ptr %7, align 8, !tbaa !11
  %81 = call i32 @OSSL_PARAM_get_size_t(ptr noundef %80, ptr noundef %8)
  %82 = icmp ne i32 %81, 0
  br i1 %82, label %84, label %83

83:                                               ; preds = %79
  call void @ERR_new()
  call void @ERR_set_debug(ptr noundef @.str, i32 noundef 390, ptr noundef @__func__.aes_ocb_set_ctx_params)
  call void (i32, i32, ptr, ...) @ERR_set_error(i32 noundef 57, i32 noundef 103, ptr noundef null)
  store i32 0, ptr %3, align 4
  store i32 1, ptr %9, align 4
  br label %129

84:                                               ; preds = %79
  %85 = load i64, ptr %8, align 8, !tbaa !9
  %86 = icmp ult i64 %85, 1
  br i1 %86, label %90, label %87

87:                                               ; preds = %84
  %88 = load i64, ptr %8, align 8, !tbaa !9
  %89 = icmp ugt i64 %88, 15
  br i1 %89, label %90, label %91

90:                                               ; preds = %87, %84
  store i32 0, ptr %3, align 4
  store i32 1, ptr %9, align 4
  br label %129

91:                                               ; preds = %87
  %92 = load ptr, ptr %6, align 8, !tbaa !15
  %93 = getelementptr inbounds nuw %struct.prov_aes_ocb_ctx_st, ptr %92, i32 0, i32 0
  %94 = getelementptr inbounds nuw %struct.prov_cipher_ctx_st, ptr %93, i32 0, i32 7
  %95 = load i64, ptr %94, align 8, !tbaa !35
  %96 = load i64, ptr %8, align 8, !tbaa !9
  %97 = icmp ne i64 %95, %96
  br i1 %97, label %98, label %105

98:                                               ; preds = %91
  %99 = load i64, ptr %8, align 8, !tbaa !9
  %100 = load ptr, ptr %6, align 8, !tbaa !15
  %101 = getelementptr inbounds nuw %struct.prov_aes_ocb_ctx_st, ptr %100, i32 0, i32 0
  %102 = getelementptr inbounds nuw %struct.prov_cipher_ctx_st, ptr %101, i32 0, i32 7
  store i64 %99, ptr %102, align 8, !tbaa !35
  %103 = load ptr, ptr %6, align 8, !tbaa !15
  %104 = getelementptr inbounds nuw %struct.prov_aes_ocb_ctx_st, ptr %103, i32 0, i32 4
  store i32 0, ptr %104, align 8, !tbaa !28
  br label %105

105:                                              ; preds = %98, %91
  br label %106

106:                                              ; preds = %105, %74
  %107 = load ptr, ptr %5, align 8, !tbaa !11
  %108 = call ptr @OSSL_PARAM_locate_const(ptr noundef %107, ptr noundef @.str.2)
  store ptr %108, ptr %7, align 8, !tbaa !11
  %109 = load ptr, ptr %7, align 8, !tbaa !11
  %110 = icmp ne ptr %109, null
  br i1 %110, label %111, label %128

111:                                              ; preds = %106
  call void @llvm.lifetime.start.p0(i64 8, ptr %10) #5
  %112 = load ptr, ptr %7, align 8, !tbaa !11
  %113 = call i32 @OSSL_PARAM_get_size_t(ptr noundef %112, ptr noundef %10)
  %114 = icmp ne i32 %113, 0
  br i1 %114, label %116, label %115

115:                                              ; preds = %111
  call void @ERR_new()
  call void @ERR_set_debug(ptr noundef @.str, i32 noundef 406, ptr noundef @__func__.aes_ocb_set_ctx_params)
  call void (i32, i32, ptr, ...) @ERR_set_error(i32 noundef 57, i32 noundef 103, ptr noundef null)
  store i32 0, ptr %3, align 4
  store i32 1, ptr %9, align 4
  br label %125

116:                                              ; preds = %111
  %117 = load ptr, ptr %6, align 8, !tbaa !15
  %118 = getelementptr inbounds nuw %struct.prov_aes_ocb_ctx_st, ptr %117, i32 0, i32 0
  %119 = getelementptr inbounds nuw %struct.prov_cipher_ctx_st, ptr %118, i32 0, i32 6
  %120 = load i64, ptr %119, align 8, !tbaa !36
  %121 = load i64, ptr %10, align 8, !tbaa !9
  %122 = icmp ne i64 %120, %121
  br i1 %122, label %123, label %124

123:                                              ; preds = %116
  call void @ERR_new()
  call void @ERR_set_debug(ptr noundef @.str, i32 noundef 410, ptr noundef @__func__.aes_ocb_set_ctx_params)
  call void (i32, i32, ptr, ...) @ERR_set_error(i32 noundef 57, i32 noundef 105, ptr noundef null)
  store i32 0, ptr %3, align 4
  store i32 1, ptr %9, align 4
  br label %125

124:                                              ; preds = %116
  store i32 0, ptr %9, align 4
  br label %125

125:                                              ; preds = %124, %123, %115
  call void @llvm.lifetime.end.p0(i64 8, ptr %10) #5
  %126 = load i32, ptr %9, align 4
  switch i32 %126, label %129 [
    i32 0, label %127
  ]

127:                                              ; preds = %125
  br label %128

128:                                              ; preds = %127, %106
  store i32 1, ptr %3, align 4
  store i32 1, ptr %9, align 4
  br label %129

129:                                              ; preds = %128, %125, %90, %83, %62, %53, %37, %26, %15
  call void @llvm.lifetime.end.p0(i64 8, ptr %8) #5
  call void @llvm.lifetime.end.p0(i64 8, ptr %7) #5
  call void @llvm.lifetime.end.p0(i64 8, ptr %6) #5
  %130 = load i32, ptr %3, align 4
  ret i32 %130
}