; Function Attrs: nounwind uwtable
define internal range(i32 0, 2) i32 @aes_ocb_set_ctx_params(ptr noundef captures(none) %0, ptr noundef %1) #0 {
  %3 = alloca i64, align 8
  %4 = alloca i64, align 8
  call void @llvm.lifetime.start.p0(i64 8, ptr nonnull %3) #7
  %5 = icmp eq ptr %1, null
  br i1 %5, label %ossl_param_is_empty.exit.thread, label %ossl_param_is_empty.exit

ossl_param_is_empty.exit:                         ; preds = %2
  %6 = load ptr, ptr %1, align 8, !tbaa !35
  %.not = icmp eq ptr %6, null
  br i1 %.not, label %ossl_param_is_empty.exit.thread, label %7

7:                                                ; preds = %ossl_param_is_empty.exit
  %8 = tail call ptr @OSSL_PARAM_locate_const(ptr noundef nonnull %1, ptr noundef nonnull @.str.6) #7
  %.not35 = icmp eq ptr %8, null
  br i1 %.not35, label %37, label %9

9:                                                ; preds = %7
  %10 = getelementptr inbounds nuw i8, ptr %8, i64 8
  %11 = load i32, ptr %10, align 8, !tbaa !33
  %.not36 = icmp eq i32 %11, 5
  br i1 %.not36, label %13, label %12

12:                                               ; preds = %9
  tail call void @ERR_new() #7
  tail call void @ERR_set_debug(ptr noundef nonnull @.str, i32 noundef 365, ptr noundef nonnull @__func__.aes_ocb_set_ctx_params) #7
  tail call void (i32, i32, ptr, ...) @ERR_set_error(i32 noundef 57, i32 noundef 103, ptr noundef null) #7
  br label %ossl_param_is_empty.exit.thread

13:                                               ; preds = %9
  %14 = getelementptr inbounds nuw i8, ptr %8, i64 16
  %15 = load ptr, ptr %14, align 8, !tbaa !34
  %16 = icmp eq ptr %15, null
  br i1 %16, label %17, label %24

17:                                               ; preds = %13
  %18 = getelementptr inbounds nuw i8, ptr %8, i64 24
  %19 = load i64, ptr %18, align 8, !tbaa !31
  %20 = icmp ugt i64 %19, 16
  br i1 %20, label %21, label %22

21:                                               ; preds = %17
  tail call void @ERR_new() #7
  tail call void @ERR_set_debug(ptr noundef nonnull @.str, i32 noundef 371, ptr noundef nonnull @__func__.aes_ocb_set_ctx_params) #7
  tail call void (i32, i32, ptr, ...) @ERR_set_error(i32 noundef 57, i32 noundef 118, ptr noundef null) #7
  br label %ossl_param_is_empty.exit.thread

22:                                               ; preds = %17
  %23 = getelementptr inbounds nuw i8, ptr %0, i64 872
  store i64 %19, ptr %23, align 8, !tbaa !3
  br label %37

24:                                               ; preds = %13
  %25 = getelementptr inbounds nuw i8, ptr %0, i64 108
  %26 = load i8, ptr %25, align 4
  %27 = and i8 %26, 2
  %.not37 = icmp eq i8 %27, 0
  br i1 %.not37, label %29, label %28

28:                                               ; preds = %24
  tail call void @ERR_new() #7
  tail call void @ERR_set_debug(ptr noundef nonnull @.str, i32 noundef 377, ptr noundef nonnull @__func__.aes_ocb_set_ctx_params) #7
  tail call void (i32, i32, ptr, ...) @ERR_set_error(i32 noundef 57, i32 noundef 524550, ptr noundef null) #7
  br label %ossl_param_is_empty.exit.thread

29:                                               ; preds = %24
  %30 = getelementptr inbounds nuw i8, ptr %8, i64 24
  %31 = load i64, ptr %30, align 8, !tbaa !31
  %32 = getelementptr inbounds nuw i8, ptr %0, i64 872
  %33 = load i64, ptr %32, align 8, !tbaa !3
  %.not38 = icmp eq i64 %31, %33
  br i1 %.not38, label %35, label %34

34:                                               ; preds = %29
  tail call void @ERR_new() #7
  tail call void @ERR_set_debug(ptr noundef nonnull @.str, i32 noundef 381, ptr noundef nonnull @__func__.aes_ocb_set_ctx_params) #7
  tail call void (i32, i32, ptr, ...) @ERR_set_error(i32 noundef 57, i32 noundef 118, ptr noundef null) #7
  br label %ossl_param_is_empty.exit.thread

35:                                               ; preds = %29
  %36 = getelementptr inbounds nuw i8, ptr %0, i64 896
  tail call void @llvm.memcpy.p0.p0.i64(ptr nonnull align 8 %36, ptr nonnull align 1 %15, i64 %31, i1 false)
  br label %37

37:                                               ; preds = %22, %35, %7
  %38 = tail call ptr @OSSL_PARAM_locate_const(ptr noundef nonnull %1, ptr noundef nonnull @.str.1) #7
  %.not39 = icmp eq ptr %38, null
  br i1 %.not39, label %50, label %39

39:                                               ; preds = %37
  %40 = call i32 @OSSL_PARAM_get_size_t(ptr noundef nonnull %38, ptr noundef nonnull %3) #7
  %.not40 = icmp eq i32 %40, 0
  br i1 %.not40, label %41, label %42

41:                                               ; preds = %39
  call void @ERR_new() #7
  call void @ERR_set_debug(ptr noundef nonnull @.str, i32 noundef 390, ptr noundef nonnull @__func__.aes_ocb_set_ctx_params) #7
  call void (i32, i32, ptr, ...) @ERR_set_error(i32 noundef 57, i32 noundef 103, ptr noundef null) #7
  br label %ossl_param_is_empty.exit.thread

42:                                               ; preds = %39
  %43 = load i64, ptr %3, align 8, !tbaa !19
  %44 = add i64 %43, -16
  %or.cond = icmp ult i64 %44, -15
  br i1 %or.cond, label %ossl_param_is_empty.exit.thread, label %45

45:                                               ; preds = %42
  %46 = getelementptr inbounds nuw i8, ptr %0, i64 80
  %47 = load i64, ptr %46, align 8, !tbaa !18
  %.not41 = icmp eq i64 %47, %43
  br i1 %.not41, label %50, label %48

48:                                               ; preds = %45
  store i64 %43, ptr %46, align 8, !tbaa !18
  %49 = getelementptr inbounds nuw i8, ptr %0, i64 864
  store i32 0, ptr %49, align 8, !tbaa !17
  br label %50

50:                                               ; preds = %45, %48, %37
  %51 = call ptr @OSSL_PARAM_locate_const(ptr noundef nonnull %1, ptr noundef nonnull @.str.2) #7
  %.not42 = icmp eq ptr %51, null
  br i1 %.not42, label %ossl_param_is_empty.exit.thread, label %52

52:                                               ; preds = %50
  call void @llvm.lifetime.start.p0(i64 8, ptr nonnull %4) #7
  %53 = call i32 @OSSL_PARAM_get_size_t(ptr noundef nonnull %51, ptr noundef nonnull %4) #7
  %.not43 = icmp eq i32 %53, 0
  br i1 %.not43, label %.critedge, label %54

54:                                               ; preds = %52
  %55 = getelementptr inbounds nuw i8, ptr %0, i64 72
  %56 = load i64, ptr %55, align 8, !tbaa !30
  %57 = load i64, ptr %4, align 8, !tbaa !19
  %.not44 = icmp eq i64 %56, %57
  br i1 %.not44, label %58, label %.critedge

58:                                               ; preds = %54
  call void @llvm.lifetime.end.p0(i64 8, ptr nonnull %4) #7
  br label %ossl_param_is_empty.exit.thread

.critedge:                                        ; preds = %54, %52
  %.sink46 = phi i32 [ 406, %52 ], [ 410, %54 ]
  %.sink = phi i32 [ 103, %52 ], [ 105, %54 ]
  call void @ERR_new() #7
  call void @ERR_set_debug(ptr noundef nonnull @.str, i32 noundef %.sink46, ptr noundef nonnull @__func__.aes_ocb_set_ctx_params) #7
  call void (i32, i32, ptr, ...) @ERR_set_error(i32 noundef 57, i32 noundef %.sink, ptr noundef null) #7
  call void @llvm.lifetime.end.p0(i64 8, ptr nonnull %4) #7
  br label %ossl_param_is_empty.exit.thread

ossl_param_is_empty.exit.thread:                  ; preds = %2, %50, %58, %.critedge, %42, %ossl_param_is_empty.exit, %41, %34, %28, %21, %12
  %.027 = phi i32 [ 0, %12 ], [ 0, %21 ], [ 0, %41 ], [ 0, %28 ], [ 0, %34 ], [ 1, %ossl_param_is_empty.exit ], [ 0, %42 ], [ 0, %.critedge ], [ 1, %58 ], [ 1, %50 ], [ 1, %2 ]
  call void @llvm.lifetime.end.p0(i64 8, ptr nonnull %3) #7
  ret i32 %.027
}